; ModuleID = '10/991.c'
source_filename = "10/991.c"
target datalayout = "e-m:e-p270:32:32-p271:32:32-p272:64:64-i64:64-f80:128-n8:16:32:64-S128"
target triple = "x86_64-pc-linux-gnu"

@.str = private unnamed_addr constant [3 x i8] c"%d\00", align 1

; Function Attrs: noinline nounwind uwtable
define dso_local i32 @max(i32* %0, i32 %1, i32 %2) #0 {
  %4 = alloca i32, align 4
  %5 = alloca i32*, align 8
  %6 = alloca i32, align 4
  %7 = alloca i32, align 4
  %8 = alloca i32, align 4
  %9 = alloca i32, align 4
  store i32* %0, i32** %5, align 8
  store i32 %1, i32* %6, align 4
  store i32 %2, i32* %7, align 4
  %10 = load i32, i32* %6, align 4
  %11 = icmp eq i32 %10, 0
  br i1 %11, label %12, label %20

12:                                               ; preds = %3
  %13 = load i32*, i32** %5, align 8
  %14 = getelementptr inbounds i32, i32* %13, i64 0
  %15 = load i32, i32* %14, align 4
  %16 = load i32, i32* %7, align 4
  %17 = icmp sgt i32 %15, %16
  br i1 %17, label %18, label %19

18:                                               ; preds = %12
  store i32 0, i32* %4, align 4
  br label %57

19:                                               ; preds = %12
  store i32 1, i32* %4, align 4
  br label %57

20:                                               ; preds = %3
  %21 = load i32*, i32** %5, align 8
  %22 = load i32, i32* %6, align 4
  %23 = sext i32 %22 to i64
  %24 = getelementptr inbounds i32, i32* %21, i64 %23
  %25 = load i32, i32* %24, align 4
  %26 = load i32, i32* %7, align 4
  %27 = icmp sgt i32 %25, %26
  br i1 %27, label %28, label %34

28:                                               ; preds = %20
  %29 = load i32*, i32** %5, align 8
  %30 = load i32, i32* %6, align 4
  %31 = sub nsw i32 %30, 1
  %32 = load i32, i32* %7, align 4
  %33 = call i32 @max(i32* %29, i32 %31, i32 %32)
  store i32 %33, i32* %4, align 4
  br label %57

34:                                               ; preds = %20
  %35 = load i32*, i32** %5, align 8
  %36 = load i32, i32* %6, align 4
  %37 = sub nsw i32 %36, 1
  %38 = load i32*, i32** %5, align 8
  %39 = load i32, i32* %6, align 4
  %40 = sext i32 %39 to i64
  %41 = getelementptr inbounds i32, i32* %38, i64 %40
  %42 = load i32, i32* %41, align 4
  %43 = call i32 @max(i32* %35, i32 %37, i32 %42)
  %44 = add nsw i32 %43, 1
  store i32 %44, i32* %8, align 4
  %45 = load i32*, i32** %5, align 8
  %46 = load i32, i32* %6, align 4
  %47 = sub nsw i32 %46, 1
  %48 = load i32, i32* %7, align 4
  %49 = call i32 @max(i32* %45, i32 %47, i32 %48)
  store i32 %49, i32* %9, align 4
  %50 = load i32, i32* %8, align 4
  %51 = load i32, i32* %9, align 4
  %52 = icmp sgt i32 %50, %51
  br i1 %52, label %53, label %55

53:                                               ; preds = %34
  %54 = load i32, i32* %8, align 4
  store i32 %54, i32* %4, align 4
  br label %57

55:                                               ; preds = %34
  %56 = load i32, i32* %9, align 4
  store i32 %56, i32* %4, align 4
  br label %57

57:                                               ; preds = %55, %53, %28, %19, %18
  %58 = load i32, i32* %4, align 4
  ret i32 %58
}

; Function Attrs: noinline nounwind uwtable
define dso_local i32 @main() #0 {
  %1 = alloca i32, align 4
  %2 = alloca i32, align 4
  %3 = alloca i32, align 4
  %4 = alloca [25 x i32], align 16
  store i32 0, i32* %1, align 4
  %5 = call i32 (i8*, ...) @__isoc99_scanf(i8* getelementptr inbounds ([3 x i8], [3 x i8]* @.str, i64 0, i64 0), i32* %2)
  store i32 0, i32* %3, align 4
  br label %6

6:                                                ; preds = %18, %0
  %7 = load i32, i32* %3, align 4
  %8 = load i32, i32* %2, align 4
  %9 = icmp slt i32 %7, %8
  br i1 %9, label %10, label %21

10:                                               ; preds = %6
  %11 = load i32, i32* %2, align 4
  %12 = load i32, i32* %3, align 4
  %13 = sub nsw i32 %11, %12
  %14 = sub nsw i32 %13, 1
  %15 = sext i32 %14 to i64
  %16 = getelementptr inbounds [25 x i32], [25 x i32]* %4, i64 0, i64 %15
  %17 = call i32 (i8*, ...) @__isoc99_scanf(i8* getelementptr inbounds ([3 x i8], [3 x i8]* @.str, i64 0, i64 0), i32* %16)
  br label %18

18:                                               ; preds = %10
  %19 = load i32, i32* %3, align 4
  %20 = add nsw i32 %19, 1
  store i32 %20, i32* %3, align 4
  br label %6

21:                                               ; preds = %6
  %22 = getelementptr inbounds [25 x i32], [25 x i32]* %4, i64 0, i64 0
  %23 = load i32, i32* %2, align 4
  %24 = call i32 @max(i32* %22, i32 %23, i32 32767)
  %25 = call i32 (i8*, ...) @printf(i8* getelementptr inbounds ([3 x i8], [3 x i8]* @.str, i64 0, i64 0), i32 %24)
  %26 = load i32, i32* %1, align 4
  ret i32 %26
}

declare dso_local i32 @__isoc99_scanf(i8*, ...) #1

declare dso_local i32 @printf(i8*, ...) #1


!llvm.module.flags = !{!0}
!llvm.ident = !{!1}

!0 = !{i32 1, !"wchar_size", i32 4}
!1 = !{!"clang version 10.0.0-4ubuntu1 "}
