; ModuleID = 'source-C-CXX/9/991.c'
source_filename = "source-C-CXX/9/991.c"
target datalayout = "e-m:e-p270:32:32-p271:32:32-p272:64:64-i64:64-f80:128-n8:16:32:64-S128"
target triple = "x86_64-pc-linux-gnu"

@.str = private unnamed_addr constant [3 x i8] c"%d\00", align 1

; Function Attrs: nofree nosync nounwind readonly sspstrong uwtable
define dso_local i32 @max(i32* %0, i32 %1, i32 %2) local_unnamed_addr #0 {
  %4 = icmp eq i32 %1, 0
  br i1 %4, label %7, label %5

5:                                                ; preds = %3
  %6 = sext i32 %1 to i64
  br label %11

7:                                                ; preds = %16, %3
  %8 = load i32, i32* %0, align 4, !tbaa !5
  %9 = icmp sle i32 %8, %2
  %10 = zext i1 %9 to i32
  br label %20

11:                                               ; preds = %5, %16
  %12 = phi i64 [ %6, %5 ], [ %17, %16 ]
  %13 = getelementptr inbounds i32, i32* %0, i64 %12
  %14 = load i32, i32* %13, align 4, !tbaa !5
  %15 = icmp sgt i32 %14, %2
  br i1 %15, label %16, label %22

16:                                               ; preds = %11
  %17 = add nsw i64 %12, -1
  %18 = trunc i64 %17 to i32
  %19 = icmp eq i32 %18, 0
  br i1 %19, label %7, label %11

20:                                               ; preds = %7, %22
  %21 = phi i32 [ %29, %22 ], [ %10, %7 ]
  ret i32 %21

22:                                               ; preds = %11
  %23 = trunc i64 %12 to i32
  %24 = add nsw i32 %23, -1
  %25 = tail call i32 @max(i32* nonnull %0, i32 %24, i32 %14)
  %26 = tail call i32 @max(i32* nonnull %0, i32 %24, i32 %2)
  %27 = icmp slt i32 %25, %26
  %28 = add nsw i32 %25, 1
  %29 = select i1 %27, i32 %26, i32 %28
  br label %20
}

; Function Attrs: argmemonly mustprogress nofree nosync nounwind willreturn
declare void @llvm.lifetime.start.p0i8(i64 immarg, i8* nocapture) #1

; Function Attrs: argmemonly mustprogress nofree nosync nounwind willreturn
declare void @llvm.lifetime.end.p0i8(i64 immarg, i8* nocapture) #1

; Function Attrs: nofree nounwind sspstrong uwtable
define dso_local i32 @main() local_unnamed_addr #2 {
  %1 = alloca i32, align 4
  %2 = alloca [25 x i32], align 16
  %3 = bitcast i32* %1 to i8*
  call void @llvm.lifetime.start.p0i8(i64 4, i8* nonnull %3) #4
  %4 = bitcast [25 x i32]* %2 to i8*
  call void @llvm.lifetime.start.p0i8(i64 100, i8* nonnull %4) #4
  %5 = call i32 (i8*, ...) @__isoc99_scanf(i8* getelementptr inbounds ([3 x i8], [3 x i8]* @.str, i64 0, i64 0), i32* nonnull %1)
  %6 = load i32, i32* %1, align 4, !tbaa !5
  %7 = icmp sgt i32 %6, 0
  br i1 %7, label %8, label %19

8:                                                ; preds = %0, %8
  %9 = phi i32 [ %17, %8 ], [ %6, %0 ]
  %10 = phi i32 [ %16, %8 ], [ 0, %0 ]
  %11 = xor i32 %10, -1
  %12 = add i32 %9, %11
  %13 = sext i32 %12 to i64
  %14 = getelementptr inbounds [25 x i32], [25 x i32]* %2, i64 0, i64 %13
  %15 = call i32 (i8*, ...) @__isoc99_scanf(i8* getelementptr inbounds ([3 x i8], [3 x i8]* @.str, i64 0, i64 0), i32* nonnull %14)
  %16 = add nuw nsw i32 %10, 1
  %17 = load i32, i32* %1, align 4, !tbaa !5
  %18 = icmp sgt i32 %17, %16
  br i1 %18, label %8, label %19, !llvm.loop !9

19:                                               ; preds = %8, %0
  %20 = phi i32 [ %6, %0 ], [ %17, %8 ]
  %21 = getelementptr inbounds [25 x i32], [25 x i32]* %2, i64 0, i64 0
  %22 = call i32 @max(i32* nonnull %21, i32 %20, i32 32767)
  %23 = call i32 (i8*, ...) @printf(i8* nonnull dereferenceable(1) getelementptr inbounds ([3 x i8], [3 x i8]* @.str, i64 0, i64 0), i32 %22)
  call void @llvm.lifetime.end.p0i8(i64 100, i8* nonnull %4) #4
  call void @llvm.lifetime.end.p0i8(i64 4, i8* nonnull %3) #4
  ret i32 0
}

; Function Attrs: nofree nounwind
declare noundef i32 @__isoc99_scanf(i8* nocapture noundef readonly, ...) local_unnamed_addr #3

; Function Attrs: nofree nounwind
declare noundef i32 @printf(i8* nocapture noundef readonly, ...) local_unnamed_addr #3


!llvm.module.flags = !{!0, !1, !2, !3}
!llvm.ident = !{!4}

!0 = !{i32 1, !"wchar_size", i32 4}
!1 = !{i32 7, !"PIC Level", i32 2}
!2 = !{i32 7, !"PIE Level", i32 2}
!3 = !{i32 7, !"uwtable", i32 1}
!4 = !{!"clang version 13.0.0"}
!5 = !{!6, !6, i64 0}
!6 = !{!"int", !7, i64 0}
!7 = !{!"omnipotent char", !8, i64 0}
!8 = !{!"Simple C/C++ TBAA"}
!9 = distinct !{!9, !10}
!10 = !{!"llvm.loop.mustprogress"}
